target datalayout = "e-m:e-p270:32:32-p271:32:32-p272:64:64-i64:64-i128:128-f80:128-n8:16:32:64-S128"
target triple = "x86_64-pc-linux-gnu"

%struct._mtp3_addr_pc_t = type { i32, i32, i8 }

; Function Attrs: nounwind null_pointer_is_valid sspstrong uwtable
define hidden i32 @mtp3_pc_hash(ptr noundef %0) #4 {
  %2 = alloca ptr, align 8
  %3 = alloca i32, align 4
  store ptr %0, ptr %2, align 8
  call void @llvm.lifetime.start.p0(i64 4, ptr %3) #11
  %4 = load ptr, ptr %2, align 8
  %5 = getelementptr inbounds nuw %struct._mtp3_addr_pc_t, ptr %4, i32 0, i32 0
  %6 = load i32, ptr %5, align 4
  switch i32 %6, label %19 [
    i32 1, label %7
  ]

7:                                                ; preds = %1
  %8 = load ptr, ptr %2, align 8
  %9 = getelementptr inbounds nuw %struct._mtp3_addr_pc_t, ptr %8, i32 0, i32 1
  %10 = load i32, ptr %9, align 4
  %11 = and i32 %10, 16383
  %12 = load ptr, ptr %2, align 8
  %13 = getelementptr inbounds nuw %struct._mtp3_addr_pc_t, ptr %12, i32 0, i32 2
  %14 = load i8, ptr %13, align 4
  %15 = zext i8 %14 to i32
  %16 = srem i32 %15, 4
  %17 = shl i32 %16, 14
  %18 = or i32 %11, %17
  store i32 %18, ptr %3, align 4
  br label %30

19:                                               ; preds = %1
  %20 = load ptr, ptr %2, align 8
  %21 = getelementptr inbounds nuw %struct._mtp3_addr_pc_t, ptr %20, i32 0, i32 1
  %22 = load i32, ptr %21, align 4
  %23 = and i32 %22, 16777215
  %24 = load ptr, ptr %2, align 8
  %25 = getelementptr inbounds nuw %struct._mtp3_addr_pc_t, ptr %24, i32 0, i32 2
  %26 = load i8, ptr %25, align 4
  %27 = zext i8 %26 to i32
  %28 = shl i32 %27, 24
  %29 = or i32 %23, %28
  store i32 %29, ptr %3, align 4
  br label %30

30:                                               ; preds = %19, %7
  %31 = load i32, ptr %3, align 4
  call void @llvm.lifetime.end.p0(i64 4, ptr %3) #11
  ret i32 %31
}