; Function Attrs: mustprogress nofree norecurse nosync nounwind null_pointer_is_valid sspstrong willreturn memory(argmem: read) uwtable
define hidden i32 @mtp3_pc_hash(ptr noundef readonly captures(none) %0) local_unnamed_addr #5 {
  %2 = load i32, ptr %0, align 4
  %cond = icmp eq i32 %2, 1
  %3 = getelementptr inbounds nuw i8, ptr %0, i64 4
  %4 = load i32, ptr %3, align 4
  %5 = getelementptr inbounds nuw i8, ptr %0, i64 8
  %6 = load i8, ptr %5, align 4
  %7 = and i8 %6, 3
  %.sink = select i1 %cond, i8 %7, i8 %6
  %.sink7 = select i1 %cond, i32 14, i32 24
  %.sink5.v = select i1 %cond, i32 16383, i32 16777215
  %.sink5 = and i32 %4, %.sink5.v
  %8 = zext i8 %.sink to i32
  %9 = shl nuw i32 %8, %.sink7
  %10 = or disjoint i32 %9, %.sink5
  ret i32 %10
}